target datalayout = "e-m:e-p270:32:32-p271:32:32-p272:64:64-i64:64-i128:128-f80:128-n8:16:32:64-S128"
target triple = "x86_64-pc-linux-gnu"

%struct.builtin_types_dissection_data_t = type { %struct.builtin_types_type_mappings, %struct.builtin_types_dissection_infos }
%struct.builtin_types_type_mappings = type { %struct._type_mapping }
%struct._type_mapping = type { %struct._endpoint_guid, [256 x i8], [256 x i8], i32, %struct._datawriter_qos, i32, i64 }
%struct._endpoint_guid = type { i32, i32, i32, i32, i32 }
%struct._datawriter_qos = type { i32, i32, i32 }
%struct.builtin_types_dissection_infos = type { %struct._dissection_info, %struct._dissection_info, %struct._dissection_info, %struct._dissection_info, %struct._dissection_info, %struct._dissection_info, %struct._dissection_info, %struct._dissection_info, %struct._dissection_info, %struct._dissection_info, %struct._dissection_info, %struct._dissection_info, %struct._dissection_info }
%struct._dissection_info = type { i64, i32, i64, i32, [256 x i8], i32, i32, i32, ptr }
%struct._packet_info = type { ptr, ptr, i32, i32, %struct.nstime_t, %struct.nstime_t, %struct.nstime_t, i8, ptr, ptr, ptr, ptr, %struct._address, %struct._address, %struct._address, %struct._address, %struct._address, %struct._address, i32, ptr, i8, [3 x i8], %struct.anon, i32, i32, i32, i32, ptr, i8, ptr, ptr, i16, i16, i32, i32, i16, i32, i32, ptr, ptr, ptr, i8, i8, i16, i16, i16, i32, i16, i16, ptr, ptr, ptr, ptr, ptr, i32, i32 }
%struct.nstime_t = type { i64, i32 }
%struct._address = type { i32, i32, ptr, ptr }
%struct.anon = type { i8, [3 x i8] }

@enable_topic_info = internal global i8 1, align 1
@enable_user_data_dissection = internal global i8 0, align 1
@rtps_type_name_table = internal global ptr null, align 8
@registry = internal global ptr null, align 8
@dissection_infos = internal global ptr null, align 8
@builtin_dissection_infos = internal global ptr null, align 8
@builtin_types_dissection_data = internal global %struct.builtin_types_dissection_data_t zeroinitializer, align 8
@.str.1285 = private unnamed_addr constant [20 x i8] c" (TypeId: 0x%016lx)\00", align 1
@.str.1302 = private unnamed_addr constant [3 x i8] c"::\00", align 1
@.str.1303 = private unnamed_addr constant [2 x i8] c"_\00", align 1

; Function Attrs: null_pointer_is_valid sspstrong uwtable
define internal void @rtps_util_format_typename(ptr noundef %0, ptr noundef %1, ptr noundef %2) #0 {
  %4 = alloca ptr, align 8
  %5 = alloca ptr, align 8
  %6 = alloca ptr, align 8
  %7 = alloca ptr, align 8
  %8 = alloca ptr, align 8
  store ptr %0, ptr %4, align 8
  store ptr %1, ptr %5, align 8
  store ptr %2, ptr %6, align 8
  call void @llvm.lifetime.start.p0(i64 8, ptr %7) #14
  call void @llvm.lifetime.start.p0(i64 8, ptr %8) #14
  %9 = load ptr, ptr %4, align 8
  %10 = load ptr, ptr %5, align 8
  %11 = call ptr @wmem_strsplit(ptr noundef %9, ptr noundef %10, ptr noundef @.str.1302, i32 noundef 255)
  store ptr %11, ptr %7, align 8
  %12 = load ptr, ptr %4, align 8
  %13 = load ptr, ptr %7, align 8
  %14 = call noalias ptr @wmem_strjoinv(ptr noundef %12, ptr noundef @.str.1303, ptr noundef %13)
  store ptr %14, ptr %8, align 8
  %15 = load ptr, ptr %4, align 8
  %16 = load ptr, ptr %8, align 8
  %17 = call ptr @wmem_ascii_strdown(ptr noundef %15, ptr noundef %16, i64 noundef -1)
  %18 = load ptr, ptr %6, align 8
  store ptr %17, ptr %18, align 8
  call void @llvm.lifetime.end.p0(i64 8, ptr %8) #14
  call void @llvm.lifetime.end.p0(i64 8, ptr %7) #14
  ret void
}

; Function Attrs: null_pointer_is_valid sspstrong uwtable
define internal ptr @lookup_dissection_info_in_custom_and_builtin_types(i64 noundef %0) #0 {
  %2 = alloca i64, align 8
  %3 = alloca ptr, align 8
  store i64 %0, ptr %2, align 8
  call void @llvm.lifetime.start.p0(i64 8, ptr %3) #14
  store ptr null, ptr %3, align 8
  %4 = load ptr, ptr @dissection_infos, align 8
  %5 = icmp ne ptr %4, null
  br i1 %5, label %6, label %18

6:                                                ; preds = %1
  %7 = load ptr, ptr @dissection_infos, align 8
  %8 = call ptr @wmem_map_lookup(ptr noundef %7, ptr noundef %2)
  store ptr %8, ptr %3, align 8
  %9 = load ptr, ptr %3, align 8
  %10 = icmp eq ptr %9, null
  br i1 %10, label %11, label %17

11:                                               ; preds = %6
  %12 = load ptr, ptr @builtin_dissection_infos, align 8
  %13 = icmp ne ptr %12, null
  br i1 %13, label %14, label %17

14:                                               ; preds = %11
  %15 = load ptr, ptr @builtin_dissection_infos, align 8
  %16 = call ptr @wmem_map_lookup(ptr noundef %15, ptr noundef %2)
  store ptr %16, ptr %3, align 8
  br label %17

17:                                               ; preds = %14, %11, %6
  br label %18

18:                                               ; preds = %17, %1
  %19 = load ptr, ptr %3, align 8
  call void @llvm.lifetime.end.p0(i64 8, ptr %3) #14
  ret ptr %19
}

; Function Attrs: null_pointer_is_valid sspstrong uwtable
define internal ptr @rtps_util_get_topic_info(ptr noundef %0) #0 {
  %2 = alloca ptr, align 8
  %3 = alloca ptr, align 8
  %4 = alloca i32, align 4
  store ptr %0, ptr %2, align 8
  call void @llvm.lifetime.start.p0(i64 8, ptr %3) #14
  store ptr null, ptr %3, align 8
  %5 = load ptr, ptr %2, align 8
  %6 = icmp ne ptr %5, null
  br i1 %6, label %7, label %29

7:                                                ; preds = %1
  call void @llvm.lifetime.start.p0(i64 4, ptr %4) #14
  %8 = load ptr, ptr %2, align 8
  %9 = getelementptr inbounds nuw %struct._endpoint_guid, ptr %8, i32 0, i32 4
  %10 = load i32, ptr %9, align 4
  %11 = and i32 255, %10
  store i32 %11, ptr %4, align 4
  %12 = load i32, ptr %4, align 4
  %13 = icmp eq i32 %12, 141
  br i1 %13, label %17, label %14

14:                                               ; preds = %7
  %15 = load i32, ptr %4, align 4
  %16 = icmp eq i32 %15, 140
  br i1 %16, label %17, label %18

17:                                               ; preds = %14, %7
  store ptr @builtin_types_dissection_data, ptr %3, align 8
  br label %28

18:                                               ; preds = %14
  %19 = load ptr, ptr %2, align 8
  %20 = getelementptr inbounds nuw %struct._endpoint_guid, ptr %19, i32 0, i32 0
  %21 = load i32, ptr %20, align 4
  %22 = icmp eq i32 %21, 15
  br i1 %22, label %23, label %27

23:                                               ; preds = %18
  %24 = load ptr, ptr @registry, align 8
  %25 = load ptr, ptr %2, align 8
  %26 = call ptr @wmem_map_lookup(ptr noundef %24, ptr noundef %25)
  store ptr %26, ptr %3, align 8
  br label %27

27:                                               ; preds = %23, %18
  br label %28

28:                                               ; preds = %27, %17
  call void @llvm.lifetime.end.p0(i64 4, ptr %4) #14
  br label %29

29:                                               ; preds = %28, %1
  %30 = load ptr, ptr %3, align 8
  call void @llvm.lifetime.end.p0(i64 8, ptr %3) #14
  ret ptr %30
}

; Function Attrs: null_pointer_is_valid sspstrong uwtable
define internal zeroext i1 @rtps_util_try_dissector(ptr noundef %0, ptr noundef %1, ptr noundef %2, i32 noundef %3, ptr noundef %4, ptr noundef %5, i32 noundef %6, i32 noundef %7, i1 noundef zeroext %8) #0 {
  %10 = alloca i1, align 1
  %11 = alloca ptr, align 8
  %12 = alloca ptr, align 8
  %13 = alloca ptr, align 8
  %14 = alloca i32, align 4
  %15 = alloca ptr, align 8
  %16 = alloca ptr, align 8
  %17 = alloca i32, align 4
  %18 = alloca i32, align 4
  %19 = alloca i8, align 1
  %20 = alloca ptr, align 8
  %21 = alloca ptr, align 8
  %22 = alloca ptr, align 8
  %23 = alloca ptr, align 8
  %24 = alloca i32, align 4
  store ptr %0, ptr %11, align 8
  store ptr %1, ptr %12, align 8
  store ptr %2, ptr %13, align 8
  store i32 %3, ptr %14, align 4
  store ptr %4, ptr %15, align 8
  store ptr %5, ptr %16, align 8
  store i32 %6, ptr %17, align 4
  store i32 %7, ptr %18, align 4
  %25 = zext i1 %8 to i8
  store i8 %25, ptr %19, align 1
  %26 = load i8, ptr @enable_topic_info, align 1, !range !6, !noundef !7
  %27 = trunc i8 %26 to i1
  br i1 %27, label %28, label %91

28:                                               ; preds = %9
  call void @llvm.lifetime.start.p0(i64 8, ptr %20) #14
  %29 = load ptr, ptr %15, align 8
  %30 = call ptr @rtps_util_get_topic_info(ptr noundef %29)
  store ptr %30, ptr %20, align 8
  %31 = load ptr, ptr %20, align 8
  %32 = icmp ne ptr %31, null
  br i1 %32, label %33, label %87

33:                                               ; preds = %28
  call void @llvm.lifetime.start.p0(i64 8, ptr %21) #14
  store ptr null, ptr %21, align 8
  call void @llvm.lifetime.start.p0(i64 8, ptr %22) #14
  call void @llvm.lifetime.start.p0(i64 8, ptr %23) #14
  store ptr null, ptr %23, align 8
  %34 = load i8, ptr %19, align 1, !range !6, !noundef !7
  %35 = trunc i8 %34 to i1
  br i1 %35, label %36, label %68

36:                                               ; preds = %33
  %37 = load i8, ptr @enable_user_data_dissection, align 1, !range !6, !noundef !7
  %38 = trunc i8 %37 to i1
  br i1 %38, label %39, label %68

39:                                               ; preds = %36
  %40 = load ptr, ptr %20, align 8
  %41 = getelementptr inbounds nuw %struct._type_mapping, ptr %40, i32 0, i32 6
  %42 = load i64, ptr %41, align 8
  %43 = call ptr @lookup_dissection_info_in_custom_and_builtin_types(i64 noundef %42)
  store ptr %43, ptr %23, align 8
  %44 = load ptr, ptr %23, align 8
  %45 = icmp ne ptr %44, null
  br i1 %45, label %46, label %67

46:                                               ; preds = %39
  %47 = load ptr, ptr %11, align 8
  %48 = load ptr, ptr %23, align 8
  %49 = getelementptr inbounds nuw %struct._dissection_info, ptr %48, i32 0, i32 0
  %50 = load i64, ptr %49, align 8
  call void (ptr, ptr, ...) @proto_item_append_text(ptr noundef %47, ptr noundef @.str.1285, i64 noundef %50)
  %51 = load ptr, ptr %11, align 8
  %52 = load ptr, ptr %13, align 8
  %53 = load ptr, ptr %12, align 8
  %54 = load i32, ptr %14, align 4
  %55 = load i32, ptr %17, align 4
  %56 = load i32, ptr %18, align 4
  %57 = load ptr, ptr %23, align 8
  %58 = load ptr, ptr %23, align 8
  %59 = getelementptr inbounds nuw %struct._dissection_info, ptr %58, i32 0, i32 0
  %60 = load i64, ptr %59, align 8
  %61 = load ptr, ptr %23, align 8
  %62 = getelementptr inbounds nuw %struct._dissection_info, ptr %61, i32 0, i32 4
  %63 = getelementptr inbounds [256 x i8], ptr %62, i64 0, i64 0
  %64 = load i32, ptr %14, align 4
  %65 = call i32 @dissect_user_defined(ptr noundef %51, ptr noundef %52, ptr noundef %53, i32 noundef %54, i32 noundef %55, i32 noundef %56, ptr noundef %57, i64 noundef %60, ptr noundef %63, i32 noundef 1, i32 noundef %64, i16 noundef zeroext 0, i32 noundef 0, i1 noundef zeroext true)
  %66 = icmp ne i32 %65, 0
  store i1 %66, ptr %10, align 1
  store i32 1, ptr %24, align 4
  br label %86

67:                                               ; preds = %39
  br label %68

68:                                               ; preds = %67, %36, %33
  %69 = load ptr, ptr %13, align 8
  %70 = load i32, ptr %14, align 4
  %71 = call ptr @tvb_new_subset_remaining(ptr noundef %69, i32 noundef %70)
  store ptr %71, ptr %22, align 8
  %72 = load ptr, ptr %12, align 8
  %73 = getelementptr inbounds nuw %struct._packet_info, ptr %72, i32 0, i32 51
  %74 = load ptr, ptr %73, align 8
  %75 = load ptr, ptr %20, align 8
  %76 = getelementptr inbounds nuw %struct._type_mapping, ptr %75, i32 0, i32 1
  %77 = getelementptr inbounds [256 x i8], ptr %76, i64 0, i64 0
  call void @rtps_util_format_typename(ptr noundef %74, ptr noundef %77, ptr noundef %21)
  %78 = load ptr, ptr @rtps_type_name_table, align 8
  %79 = load ptr, ptr %21, align 8
  %80 = load ptr, ptr %22, align 8
  %81 = load ptr, ptr %12, align 8
  %82 = load ptr, ptr %11, align 8
  %83 = load ptr, ptr %16, align 8
  %84 = call i32 @dissector_try_string_with_data(ptr noundef %78, ptr noundef %79, ptr noundef %80, ptr noundef %81, ptr noundef %82, i1 noundef zeroext true, ptr noundef %83)
  %85 = icmp ne i32 %84, 0
  store i1 %85, ptr %10, align 1
  store i32 1, ptr %24, align 4
  br label %86

86:                                               ; preds = %68, %46
  call void @llvm.lifetime.end.p0(i64 8, ptr %23) #14
  call void @llvm.lifetime.end.p0(i64 8, ptr %22) #14
  call void @llvm.lifetime.end.p0(i64 8, ptr %21) #14
  br label %88

87:                                               ; preds = %28
  store i32 0, ptr %24, align 4
  br label %88

88:                                               ; preds = %87, %86
  call void @llvm.lifetime.end.p0(i64 8, ptr %20) #14
  %89 = load i32, ptr %24, align 4
  switch i32 %89, label %94 [
    i32 0, label %90
    i32 1, label %92
  ]

90:                                               ; preds = %88
  br label %91

91:                                               ; preds = %90, %9
  store i1 false, ptr %10, align 1
  br label %92

92:                                               ; preds = %91, %88
  %93 = load i1, ptr %10, align 1
  ret i1 %93

94:                                               ; preds = %88
  unreachable
}