; Function Attrs: null_pointer_is_valid sspstrong uwtable
define internal fastcc zeroext i1 @rtps_util_try_dissector(ptr noundef %0, ptr noundef %1, ptr noundef %2, i32 noundef %3, ptr noundef %4, ptr noundef %5, i32 noundef range(i32 0, -2147483647) %6, i32 noundef range(i32 1, 3) %7, i1 noundef zeroext %8) unnamed_addr #0 {
  %10 = alloca i64, align 8
  %11 = load i8, ptr @enable_topic_info, align 1, !range !8, !noundef !9
  %12 = trunc nuw i8 %11 to i1
  %.not.i = icmp ne ptr %4, null
  %or.cond.not = and i1 %.not.i, %12
  br i1 %or.cond.not, label %13, label %.thread

13:                                               ; preds = %9
  %14 = getelementptr inbounds nuw i8, ptr %4, i64 16
  %15 = load i32, ptr %14, align 4
  %16 = and i32 %15, 254
  %or.cond.i = icmp eq i32 %16, 140
  br i1 %or.cond.i, label %rtps_util_get_topic_info.exit.thread36, label %17

17:                                               ; preds = %13
  %18 = load i32, ptr %4, align 4
  %19 = icmp eq i32 %18, 15
  br i1 %19, label %rtps_util_get_topic_info.exit, label %.thread

rtps_util_get_topic_info.exit:                    ; preds = %17
  %20 = load ptr, ptr @registry, align 8
  %21 = tail call ptr @wmem_map_lookup(ptr noundef %20, ptr noundef nonnull %4)
  %.not.not = icmp eq ptr %21, null
  br i1 %.not.not, label %.thread, label %rtps_util_get_topic_info.exit.thread36

rtps_util_get_topic_info.exit.thread36:           ; preds = %13, %rtps_util_get_topic_info.exit
  %.0.i39 = phi ptr [ %21, %rtps_util_get_topic_info.exit ], [ @builtin_types_dissection_data, %13 ]
  br i1 %8, label %22, label %41

22:                                               ; preds = %rtps_util_get_topic_info.exit.thread36
  %23 = load i8, ptr @enable_user_data_dissection, align 1, !range !8, !noundef !9
  %24 = trunc nuw i8 %23 to i1
  br i1 %24, label %25, label %41

25:                                               ; preds = %22
  %26 = getelementptr inbounds nuw i8, ptr %.0.i39, i64 552
  %27 = load i64, ptr %26, align 8
  call void @llvm.lifetime.start.p0(i64 8, ptr nonnull %10)
  store i64 %27, ptr %10, align 8
  %28 = load ptr, ptr @dissection_infos, align 8
  %.not.i30 = icmp eq ptr %28, null
  br i1 %.not.i30, label %lookup_dissection_info_in_custom_and_builtin_types.exit.thread, label %29

lookup_dissection_info_in_custom_and_builtin_types.exit.thread: ; preds = %25
  call void @llvm.lifetime.end.p0(i64 8, ptr nonnull %10)
  br label %41

29:                                               ; preds = %25
  %30 = call ptr @wmem_map_lookup(ptr noundef nonnull %28, ptr noundef nonnull %10)
  %31 = icmp eq ptr %30, null
  %32 = load ptr, ptr @builtin_dissection_infos, align 8
  %33 = icmp ne ptr %32, null
  %or.cond.i31 = select i1 %31, i1 %33, i1 false
  br i1 %or.cond.i31, label %34, label %lookup_dissection_info_in_custom_and_builtin_types.exit

34:                                               ; preds = %29
  %35 = call ptr @wmem_map_lookup(ptr noundef nonnull %32, ptr noundef nonnull %10)
  br label %lookup_dissection_info_in_custom_and_builtin_types.exit

lookup_dissection_info_in_custom_and_builtin_types.exit: ; preds = %29, %34
  %.0.i32 = phi ptr [ %35, %34 ], [ %30, %29 ]
  call void @llvm.lifetime.end.p0(i64 8, ptr nonnull %10)
  %.not29 = icmp eq ptr %.0.i32, null
  br i1 %.not29, label %41, label %36

36:                                               ; preds = %lookup_dissection_info_in_custom_and_builtin_types.exit
  %37 = load i64, ptr %.0.i32, align 8
  call void (ptr, ptr, ...) @proto_item_append_text(ptr noundef %0, ptr noundef nonnull @.str.1285, i64 noundef %37)
  %38 = load i64, ptr %.0.i32, align 8
  %39 = getelementptr inbounds nuw i8, ptr %.0.i32, i64 28
  %40 = call fastcc i32 @dissect_user_defined(ptr noundef %0, ptr noundef %2, ptr noundef %1, i32 noundef %3, i32 noundef %6, i32 noundef %7, ptr noundef nonnull %.0.i32, i64 noundef %38, ptr noundef nonnull %39, i32 noundef 1, i32 noundef %3, i16 noundef zeroext 0, i32 noundef 0, i1 noundef zeroext true)
  br label %51

41:                                               ; preds = %lookup_dissection_info_in_custom_and_builtin_types.exit.thread, %lookup_dissection_info_in_custom_and_builtin_types.exit, %22, %rtps_util_get_topic_info.exit.thread36
  %42 = call ptr @tvb_new_subset_remaining(ptr noundef %2, i32 noundef %3)
  %43 = getelementptr inbounds nuw i8, ptr %1, i64 408
  %44 = load ptr, ptr %43, align 8
  %45 = getelementptr inbounds nuw i8, ptr %.0.i39, i64 20
  %46 = call ptr @wmem_strsplit(ptr noundef %44, ptr noundef nonnull %45, ptr noundef nonnull @.str.1302, i32 noundef 255)
  %47 = call noalias ptr @wmem_strjoinv(ptr noundef %44, ptr noundef nonnull @.str.1303, ptr noundef %46)
  %48 = call ptr @wmem_ascii_strdown(ptr noundef %44, ptr noundef %47, i64 noundef -1)
  %49 = load ptr, ptr @rtps_type_name_table, align 8
  %50 = call i32 @dissector_try_string_with_data(ptr noundef %49, ptr noundef %48, ptr noundef %42, ptr noundef %1, ptr noundef %0, i1 noundef zeroext true, ptr noundef %5)
  br label %51

51:                                               ; preds = %36, %41
  %.026.in = phi i32 [ %40, %36 ], [ %50, %41 ]
  %.026 = icmp ne i32 %.026.in, 0
  br label %.thread

.thread:                                          ; preds = %17, %rtps_util_get_topic_info.exit, %9, %51
  %.2 = phi i1 [ %.026, %51 ], [ false, %9 ], [ false, %rtps_util_get_topic_info.exit ], [ false, %17 ]
  ret i1 %.2
}